target datalayout = "e-m:e-p270:32:32-p271:32:32-p272:64:64-i64:64-i128:128-f80:128-n8:16:32:64-S128"
target triple = "x86_64-pc-linux-gnu"

%struct.ogg_page = type { ptr, i64, ptr, i64 }
%struct.FLAC__StreamEncoder = type { ptr, ptr }
%struct.FLAC__StreamEncoderProtected = type { i32, i32, i32, i32, i32, i32, i32, i32, i32, i32, i32, [32 x %struct.FLAC__ApodizationSpecification], i32, i32, i32, i32, i32, i32, i32, i32, i64, i32, ptr, i32, i32, i64, i64, i64, %struct.FLAC__OggEncoderAspect }
%struct.FLAC__ApodizationSpecification = type { i32, %union.anon }
%union.anon = type { %struct.anon.1 }
%struct.anon.1 = type { float, float, float }
%struct.FLAC__OggEncoderAspect = type { i64, i32, %struct.ogg_stream_state, %struct.ogg_page, i32, i32, i64, i64 }
%struct.ogg_stream_state = type { ptr, i64, i64, i64, ptr, ptr, i64, i64, i64, i64, [282 x i8], i32, i32, i32, i64, i64, i64, i64 }

; Function Attrs: nounwind sspstrong uwtable
define hidden i32 @simple_ogg_page__set_at(ptr noundef %0, i64 noundef %1, ptr noundef %2, ptr noundef %3, ptr noundef %4, ptr noundef %5) #0 {
  %7 = alloca i32, align 4
  %8 = alloca ptr, align 8
  %9 = alloca i64, align 8
  %10 = alloca ptr, align 8
  %11 = alloca ptr, align 8
  %12 = alloca ptr, align 8
  %13 = alloca ptr, align 8
  %14 = alloca i32, align 4
  %15 = alloca i32, align 4
  store ptr %0, ptr %8, align 8, !tbaa !3
  store i64 %1, ptr %9, align 8, !tbaa !14
  store ptr %2, ptr %10, align 8, !tbaa !3
  store ptr %3, ptr %11, align 8, !tbaa !3
  store ptr %4, ptr %12, align 8, !tbaa !3
  store ptr %5, ptr %13, align 8, !tbaa !3
  call void @llvm.lifetime.start.p0(i64 4, ptr %14) #9
  %16 = load ptr, ptr %11, align 8, !tbaa !3
  %17 = icmp eq ptr null, %16
  br i1 %17, label %18, label %19

18:                                               ; preds = %6
  store i32 0, ptr %7, align 4
  store i32 1, ptr %15, align 4
  br label %71

19:                                               ; preds = %6
  %20 = load ptr, ptr %11, align 8, !tbaa !3
  %21 = load ptr, ptr %8, align 8, !tbaa !3
  %22 = load i64, ptr %9, align 8, !tbaa !14
  %23 = load ptr, ptr %13, align 8, !tbaa !3
  %24 = call i32 %20(ptr noundef %21, i64 noundef %22, ptr noundef %23)
  store i32 %24, ptr %14, align 4, !tbaa !15
  %25 = icmp ne i32 %24, 0
  br i1 %25, label %26, label %35

26:                                               ; preds = %19
  %27 = load i32, ptr %14, align 4, !tbaa !15
  %28 = icmp eq i32 %27, 1
  br i1 %28, label %29, label %34

29:                                               ; preds = %26
  %30 = load ptr, ptr %8, align 8, !tbaa !3
  %31 = getelementptr inbounds nuw %struct.FLAC__StreamEncoder, ptr %30, i32 0, i32 0
  %32 = load ptr, ptr %31, align 8, !tbaa !17
  %33 = getelementptr inbounds nuw %struct.FLAC__StreamEncoderProtected, ptr %32, i32 0, i32 0
  store i32 5, ptr %33, align 8, !tbaa !21
  br label %34

34:                                               ; preds = %29, %26
  store i32 0, ptr %7, align 4
  store i32 1, ptr %15, align 4
  br label %71

35:                                               ; preds = %19
  %36 = load ptr, ptr %10, align 8, !tbaa !3
  call void @ogg_page_checksum_set(ptr noundef %36)
  %37 = load ptr, ptr %12, align 8, !tbaa !3
  %38 = load ptr, ptr %8, align 8, !tbaa !3
  %39 = load ptr, ptr %10, align 8, !tbaa !3
  %40 = getelementptr inbounds nuw %struct.ogg_page, ptr %39, i32 0, i32 0
  %41 = load ptr, ptr %40, align 8, !tbaa !7
  %42 = load ptr, ptr %10, align 8, !tbaa !3
  %43 = getelementptr inbounds nuw %struct.ogg_page, ptr %42, i32 0, i32 1
  %44 = load i64, ptr %43, align 8, !tbaa !11
  %45 = load ptr, ptr %13, align 8, !tbaa !3
  %46 = call i32 %37(ptr noundef %38, ptr noundef %41, i64 noundef %44, i32 noundef 0, i32 noundef 0, ptr noundef %45)
  %47 = icmp ne i32 %46, 0
  br i1 %47, label %48, label %53

48:                                               ; preds = %35
  %49 = load ptr, ptr %8, align 8, !tbaa !3
  %50 = getelementptr inbounds nuw %struct.FLAC__StreamEncoder, ptr %49, i32 0, i32 0
  %51 = load ptr, ptr %50, align 8, !tbaa !17
  %52 = getelementptr inbounds nuw %struct.FLAC__StreamEncoderProtected, ptr %51, i32 0, i32 0
  store i32 5, ptr %52, align 8, !tbaa !21
  store i32 0, ptr %7, align 4
  store i32 1, ptr %15, align 4
  br label %71

53:                                               ; preds = %35
  %54 = load ptr, ptr %12, align 8, !tbaa !3
  %55 = load ptr, ptr %8, align 8, !tbaa !3
  %56 = load ptr, ptr %10, align 8, !tbaa !3
  %57 = getelementptr inbounds nuw %struct.ogg_page, ptr %56, i32 0, i32 2
  %58 = load ptr, ptr %57, align 8, !tbaa !12
  %59 = load ptr, ptr %10, align 8, !tbaa !3
  %60 = getelementptr inbounds nuw %struct.ogg_page, ptr %59, i32 0, i32 3
  %61 = load i64, ptr %60, align 8, !tbaa !13
  %62 = load ptr, ptr %13, align 8, !tbaa !3
  %63 = call i32 %54(ptr noundef %55, ptr noundef %58, i64 noundef %61, i32 noundef 0, i32 noundef 0, ptr noundef %62)
  %64 = icmp ne i32 %63, 0
  br i1 %64, label %65, label %70

65:                                               ; preds = %53
  %66 = load ptr, ptr %8, align 8, !tbaa !3
  %67 = getelementptr inbounds nuw %struct.FLAC__StreamEncoder, ptr %66, i32 0, i32 0
  %68 = load ptr, ptr %67, align 8, !tbaa !17
  %69 = getelementptr inbounds nuw %struct.FLAC__StreamEncoderProtected, ptr %68, i32 0, i32 0
  store i32 5, ptr %69, align 8, !tbaa !21
  store i32 0, ptr %7, align 4
  store i32 1, ptr %15, align 4
  br label %71

70:                                               ; preds = %53
  store i32 1, ptr %7, align 4
  store i32 1, ptr %15, align 4
  br label %71

71:                                               ; preds = %70, %65, %48, %34, %18
  call void @llvm.lifetime.end.p0(i64 4, ptr %14) #9
  %72 = load i32, ptr %7, align 4
  ret i32 %72
}