; Function Attrs: nounwind sspstrong uwtable
define hidden range(i32 0, 2) i32 @simple_ogg_page__set_at(ptr noundef %0, i64 noundef %1, ptr noundef %2, ptr noundef readonly %3, ptr noundef readonly captures(none) %4, ptr noundef %5) local_unnamed_addr #5 {
  %7 = icmp eq ptr %3, null
  br i1 %7, label %22, label %8

8:                                                ; preds = %6
  %9 = tail call i32 %3(ptr noundef %0, i64 noundef %1, ptr noundef %5) #11
  switch i32 %9, label %22 [
    i32 0, label %10
    i32 1, label %.sink.split
  ]

10:                                               ; preds = %8
  tail call void @ogg_page_checksum_set(ptr noundef %2) #11
  %11 = load ptr, ptr %2, align 8, !tbaa !3
  %12 = getelementptr inbounds nuw i8, ptr %2, i64 8
  %13 = load i64, ptr %12, align 8, !tbaa !25
  %14 = tail call i32 %4(ptr noundef %0, ptr noundef %11, i64 noundef %13, i32 noundef 0, i32 noundef 0, ptr noundef %5) #11
  %.not22 = icmp eq i32 %14, 0
  br i1 %.not22, label %15, label %.sink.split

15:                                               ; preds = %10
  %16 = getelementptr inbounds nuw i8, ptr %2, i64 16
  %17 = load ptr, ptr %16, align 8, !tbaa !10
  %18 = getelementptr inbounds nuw i8, ptr %2, i64 24
  %19 = load i64, ptr %18, align 8, !tbaa !28
  %20 = tail call i32 %4(ptr noundef %0, ptr noundef %17, i64 noundef %19, i32 noundef 0, i32 noundef 0, ptr noundef %5) #11
  %.not23 = icmp eq i32 %20, 0
  br i1 %.not23, label %22, label %.sink.split

.sink.split:                                      ; preds = %15, %10, %8
  %21 = load ptr, ptr %0, align 8, !tbaa !11
  store i32 5, ptr %21, align 8, !tbaa !15
  br label %22

22:                                               ; preds = %.sink.split, %15, %8, %6
  %.0 = phi i32 [ 0, %6 ], [ 0, %8 ], [ 1, %15 ], [ 0, %.sink.split ]
  ret i32 %.0
}